; Function Attrs: mustprogress uwtable
define hidden void @_ZN11upolynomial7manager9sturm_seqEjPK3mpzjS3_RNS_20upolynomial_sequenceE(ptr noundef nonnull align 8 dereferenceable(312) %0, i32 noundef %1, ptr noundef %2, i32 noundef %3, ptr noundef %4, ptr noundef nonnull align 8 dereferenceable(24) %5) local_unnamed_addr #3 align 2 {
  %7 = load ptr, ptr %5, align 8, !tbaa !28
  %8 = icmp eq ptr %7, null
  br i1 %8, label %_ZN11upolynomial7manager5resetER7svectorI3mpzjE.exit.i, label %_ZNK6vectorI3mpzLb0EjE4sizeEv.exit.i.i.i.i

_ZNK6vectorI3mpzLb0EjE4sizeEv.exit.i.i.i.i:       ; preds = %6
  %9 = getelementptr inbounds i8, ptr %7, i64 -4
  %10 = load i32, ptr %9, align 4, !tbaa !27
  %.not.i.i.i = icmp eq i32 %10, 0
  br i1 %.not.i.i.i, label %_ZNK6vectorI3mpzLb0EjE4sizeEv.exit.i.i.i.i.i, label %.lr.ph.i.i.i.i

.lr.ph.i.i.i.i:                                   ; preds = %_ZNK6vectorI3mpzLb0EjE4sizeEv.exit.i.i.i.i
  %11 = getelementptr inbounds nuw i8, ptr %0, i64 8
  %zext.i.i.i = zext i32 %10 to i64
  br label %14

._crit_edge.i.i.i.i:                              ; preds = %14
  %.pre.i.i.i.i = load ptr, ptr %5, align 8, !tbaa !28
  %.not.i.i.i.i.i = icmp eq ptr %.pre.i.i.i.i, null
  br i1 %.not.i.i.i.i.i, label %_ZN11upolynomial7manager5resetER7svectorI3mpzjE.exit.i, label %_ZNK6vectorI3mpzLb0EjE4sizeEv.exit.i.i.i.i.i

_ZNK6vectorI3mpzLb0EjE4sizeEv.exit.i.i.i.i.i:     ; preds = %._crit_edge.i.i.i.i, %_ZNK6vectorI3mpzLb0EjE4sizeEv.exit.i.i.i.i
  %12 = phi ptr [ %.pre.i.i.i.i, %._crit_edge.i.i.i.i ], [ %7, %_ZNK6vectorI3mpzLb0EjE4sizeEv.exit.i.i.i.i ]
  %13 = getelementptr inbounds i8, ptr %12, i64 -4
  store i32 0, ptr %13, align 4, !tbaa !27
  br label %_ZN11upolynomial7manager5resetER7svectorI3mpzjE.exit.i

14:                                               ; preds = %14, %.lr.ph.i.i.i.i
  %indvars.iv.i.i.i.i = phi i64 [ 0, %.lr.ph.i.i.i.i ], [ %indvars.iv.next.i.i.i.i, %14 ]
  %15 = load ptr, ptr %5, align 8, !tbaa !28
  %16 = getelementptr inbounds nuw %class.mpz, ptr %15, i64 %indvars.iv.i.i.i.i
  %17 = load ptr, ptr %11, align 8, !tbaa !33
  tail call void @_ZN11mpz_managerILb0EE3delEPS0_R3mpz(ptr noundef nonnull align 8 dereferenceable(600) %17, ptr noundef nonnull align 8 dereferenceable(16) %16)
  %indvars.iv.next.i.i.i.i = add nuw nsw i64 %indvars.iv.i.i.i.i, 1
  %18 = icmp eq i64 %indvars.iv.next.i.i.i.i, %zext.i.i.i
  br i1 %18, label %._crit_edge.i.i.i.i, label %14, !llvm.loop !36

_ZN11upolynomial7manager5resetER7svectorI3mpzjE.exit.i: ; preds = %_ZNK6vectorI3mpzLb0EjE4sizeEv.exit.i.i.i.i.i, %._crit_edge.i.i.i.i, %6
  %19 = getelementptr inbounds nuw i8, ptr %5, i64 16
  %20 = load ptr, ptr %19, align 8, !tbaa !25
  %.not.i.i = icmp eq ptr %20, null
  br i1 %.not.i.i, label %_ZN6vectorIjLb0EjE5resetEv.exit.i, label %21

21:                                               ; preds = %_ZN11upolynomial7manager5resetER7svectorI3mpzjE.exit.i
  %22 = getelementptr inbounds i8, ptr %20, i64 -4
  store i32 0, ptr %22, align 4, !tbaa !27
  br label %_ZN6vectorIjLb0EjE5resetEv.exit.i

_ZN6vectorIjLb0EjE5resetEv.exit.i:                ; preds = %21, %_ZN11upolynomial7manager5resetER7svectorI3mpzjE.exit.i
  %23 = getelementptr inbounds nuw i8, ptr %5, i64 8
  %24 = load ptr, ptr %23, align 8, !tbaa !25
  %.not.i4.i = icmp eq ptr %24, null
  br i1 %.not.i4.i, label %_ZN11upolynomial7manager5resetERNS_20upolynomial_sequenceE.exit, label %25

25:                                               ; preds = %_ZN6vectorIjLb0EjE5resetEv.exit.i
  %26 = getelementptr inbounds i8, ptr %24, i64 -4
  store i32 0, ptr %26, align 4, !tbaa !27
  br label %_ZN11upolynomial7manager5resetERNS_20upolynomial_sequenceE.exit

_ZN11upolynomial7manager5resetERNS_20upolynomial_sequenceE.exit: ; preds = %_ZN6vectorIjLb0EjE5resetEv.exit.i, %25
  %27 = getelementptr inbounds nuw i8, ptr %0, i64 8
  tail call void @_ZN11upolynomial20upolynomial_sequence4pushER13mpzzp_managerjPK3mpz(ptr noundef nonnull align 8 dereferenceable(24) %5, ptr noundef nonnull align 8 dereferenceable(136) %27, i32 noundef %1, ptr noundef %2)
  tail call void @_ZN11upolynomial20upolynomial_sequence4pushER13mpzzp_managerjPK3mpz(ptr noundef nonnull align 8 dereferenceable(24) %5, ptr noundef nonnull align 8 dereferenceable(136) %27, i32 noundef %3, ptr noundef %4)
  tail call void @_ZN11upolynomial7manager14sturm_seq_coreERNS_20upolynomial_sequenceE(ptr noundef nonnull align 8 dereferenceable(312) %0, ptr noundef nonnull align 8 dereferenceable(24) %5)
  ret void
}